; Function Attrs: mustprogress uwtable
define noundef i32 @_ZN3zmq23stream_connecter_base_t21get_new_reconnect_ivlEv(ptr noundef nonnull align 8 captures(none) dereferenceable(1544) %0) local_unnamed_addr #0 align 2 {
  %2 = getelementptr inbounds nuw i8, ptr %0, i64 356
  %3 = load i32, ptr %2, align 4, !tbaa !85
  %4 = icmp sgt i32 %3, 0
  %5 = getelementptr inbounds nuw i8, ptr %0, i64 1532
  %6 = load i32, ptr %5, align 4, !tbaa !75
  %7 = icmp eq i32 %6, -1
  br i1 %4, label %8, label %13

8:                                                ; preds = %1
  %9 = getelementptr inbounds nuw i8, ptr %0, i64 352
  %10 = load i32, ptr %9, align 8
  %11 = icmp sgt i32 %6, 1073741823
  %12 = shl nsw i32 %6, 1
  %spec.select = select i1 %11, i32 2147483647, i32 %12
  %.06 = select i1 %7, i32 %10, i32 %spec.select
  %..06 = tail call i32 @llvm.smin.i32(i32 %.06, i32 %3)
  store i32 %..06, ptr %5, align 4, !tbaa !75
  br label %26

13:                                               ; preds = %1
  br i1 %7, label %14, label %17

14:                                               ; preds = %13
  %15 = getelementptr inbounds nuw i8, ptr %0, i64 352
  %16 = load i32, ptr %15, align 8, !tbaa !84
  store i32 %16, ptr %5, align 4, !tbaa !75
  br label %17

17:                                               ; preds = %14, %13
  %18 = tail call noundef i32 @_ZN3zmq15generate_randomEv()
  %19 = getelementptr inbounds nuw i8, ptr %0, i64 352
  %20 = load i32, ptr %19, align 8, !tbaa !84
  %21 = urem i32 %18, %20
  %22 = load i32, ptr %5, align 4, !tbaa !75
  %23 = sub nsw i32 2147483647, %21
  %24 = icmp slt i32 %22, %23
  %25 = add nsw i32 %22, %21
  %spec.select9 = select i1 %24, i32 %25, i32 2147483647
  br label %26

26:                                               ; preds = %17, %8
  %.0 = phi i32 [ %..06, %8 ], [ %spec.select9, %17 ]
  ret i32 %.0
}